target datalayout = "e-m:e-p270:32:32-p271:32:32-p272:64:64-i64:64-i128:128-f80:128-n8:16:32:64-S128"
target triple = "x86_64-pc-linux-gnu"

%struct._generic_SUNMatrix = type { ptr, ptr, ptr }
%struct._SUNMatrixContent_Sparse = type { i64, i64, i64, i64, ptr, i32, ptr, ptr, ptr, ptr, ptr, ptr }

; Function Attrs: nounwind uwtable
define i32 @SUNMatZero_Sparse(ptr noundef %0) #0 {
  %2 = alloca ptr, align 8
  %3 = alloca i64, align 8
  store ptr %0, ptr %2, align 8, !tbaa !12
  call void @llvm.lifetime.start.p0(i64 8, ptr %3) #8
  store i64 0, ptr %3, align 8, !tbaa !3
  br label %4

4:                                                ; preds = %27, %1
  %5 = load i64, ptr %3, align 8, !tbaa !3
  %6 = load ptr, ptr %2, align 8, !tbaa !12
  %7 = getelementptr inbounds nuw %struct._generic_SUNMatrix, ptr %6, i32 0, i32 0
  %8 = load ptr, ptr %7, align 8, !tbaa !29
  %9 = getelementptr inbounds nuw %struct._SUNMatrixContent_Sparse, ptr %8, i32 0, i32 2
  %10 = load i64, ptr %9, align 8, !tbaa !37
  %11 = icmp slt i64 %5, %10
  br i1 %11, label %12, label %30

12:                                               ; preds = %4
  %13 = load ptr, ptr %2, align 8, !tbaa !12
  %14 = getelementptr inbounds nuw %struct._generic_SUNMatrix, ptr %13, i32 0, i32 0
  %15 = load ptr, ptr %14, align 8, !tbaa !29
  %16 = getelementptr inbounds nuw %struct._SUNMatrixContent_Sparse, ptr %15, i32 0, i32 4
  %17 = load ptr, ptr %16, align 8, !tbaa !43
  %18 = load i64, ptr %3, align 8, !tbaa !3
  %19 = getelementptr inbounds double, ptr %17, i64 %18
  store double 0.000000e+00, ptr %19, align 8, !tbaa !47
  %20 = load ptr, ptr %2, align 8, !tbaa !12
  %21 = getelementptr inbounds nuw %struct._generic_SUNMatrix, ptr %20, i32 0, i32 0
  %22 = load ptr, ptr %21, align 8, !tbaa !29
  %23 = getelementptr inbounds nuw %struct._SUNMatrixContent_Sparse, ptr %22, i32 0, i32 6
  %24 = load ptr, ptr %23, align 8, !tbaa !44
  %25 = load i64, ptr %3, align 8, !tbaa !3
  %26 = getelementptr inbounds i64, ptr %24, i64 %25
  store i64 0, ptr %26, align 8, !tbaa !3
  br label %27

27:                                               ; preds = %12
  %28 = load i64, ptr %3, align 8, !tbaa !3
  %29 = add nsw i64 %28, 1
  store i64 %29, ptr %3, align 8, !tbaa !3
  br label %4

30:                                               ; preds = %4
  store i64 0, ptr %3, align 8, !tbaa !3
  br label %31

31:                                               ; preds = %47, %30
  %32 = load i64, ptr %3, align 8, !tbaa !3
  %33 = load ptr, ptr %2, align 8, !tbaa !12
  %34 = getelementptr inbounds nuw %struct._generic_SUNMatrix, ptr %33, i32 0, i32 0
  %35 = load ptr, ptr %34, align 8, !tbaa !29
  %36 = getelementptr inbounds nuw %struct._SUNMatrixContent_Sparse, ptr %35, i32 0, i32 3
  %37 = load i64, ptr %36, align 8, !tbaa !38
  %38 = icmp slt i64 %32, %37
  br i1 %38, label %39, label %50

39:                                               ; preds = %31
  %40 = load ptr, ptr %2, align 8, !tbaa !12
  %41 = getelementptr inbounds nuw %struct._generic_SUNMatrix, ptr %40, i32 0, i32 0
  %42 = load ptr, ptr %41, align 8, !tbaa !29
  %43 = getelementptr inbounds nuw %struct._SUNMatrixContent_Sparse, ptr %42, i32 0, i32 7
  %44 = load ptr, ptr %43, align 8, !tbaa !45
  %45 = load i64, ptr %3, align 8, !tbaa !3
  %46 = getelementptr inbounds i64, ptr %44, i64 %45
  store i64 0, ptr %46, align 8, !tbaa !3
  br label %47

47:                                               ; preds = %39
  %48 = load i64, ptr %3, align 8, !tbaa !3
  %49 = add nsw i64 %48, 1
  store i64 %49, ptr %3, align 8, !tbaa !3
  br label %31

50:                                               ; preds = %31
  %51 = load ptr, ptr %2, align 8, !tbaa !12
  %52 = getelementptr inbounds nuw %struct._generic_SUNMatrix, ptr %51, i32 0, i32 0
  %53 = load ptr, ptr %52, align 8, !tbaa !29
  %54 = getelementptr inbounds nuw %struct._SUNMatrixContent_Sparse, ptr %53, i32 0, i32 7
  %55 = load ptr, ptr %54, align 8, !tbaa !45
  %56 = load ptr, ptr %2, align 8, !tbaa !12
  %57 = getelementptr inbounds nuw %struct._generic_SUNMatrix, ptr %56, i32 0, i32 0
  %58 = load ptr, ptr %57, align 8, !tbaa !29
  %59 = getelementptr inbounds nuw %struct._SUNMatrixContent_Sparse, ptr %58, i32 0, i32 3
  %60 = load i64, ptr %59, align 8, !tbaa !38
  %61 = getelementptr inbounds i64, ptr %55, i64 %60
  store i64 0, ptr %61, align 8, !tbaa !3
  call void @llvm.lifetime.end.p0(i64 8, ptr %3) #8
  ret i32 0
}