; Function Attrs: nofree norecurse nosync nounwind memory(readwrite, inaccessiblemem: none) uwtable
define noundef i32 @SUNMatZero_Sparse(ptr noundef readonly captures(none) %0) #4 {
  %2 = load ptr, ptr %0, align 8, !tbaa !20
  %3 = getelementptr inbounds nuw i8, ptr %2, i64 16
  %4 = load i64, ptr %3, align 8, !tbaa !30
  %5 = icmp sgt i64 %4, 0
  br i1 %5, label %.lr.ph, label %.preheader

.lr.ph:                                           ; preds = %1
  %6 = getelementptr inbounds nuw i8, ptr %2, i64 32
  %7 = load ptr, ptr %6, align 8, !tbaa !33
  %8 = getelementptr inbounds nuw i8, ptr %2, i64 48
  %9 = load ptr, ptr %8, align 8, !tbaa !34
  br label %15

.preheader:                                       ; preds = %15, %1
  %10 = getelementptr inbounds nuw i8, ptr %2, i64 24
  %11 = load i64, ptr %10, align 8, !tbaa !31
  %12 = icmp sgt i64 %11, 0
  %13 = getelementptr inbounds nuw i8, ptr %2, i64 56
  %14 = load ptr, ptr %13, align 8, !tbaa !35
  br i1 %12, label %.lr.ph17, label %._crit_edge

15:                                               ; preds = %.lr.ph, %15
  %.015 = phi i64 [ 0, %.lr.ph ], [ %18, %15 ]
  %16 = getelementptr inbounds nuw double, ptr %7, i64 %.015
  store double 0.000000e+00, ptr %16, align 8, !tbaa !41
  %17 = getelementptr inbounds nuw i64, ptr %9, i64 %.015
  store i64 0, ptr %17, align 8, !tbaa !43
  %18 = add nuw nsw i64 %.015, 1
  %19 = load i64, ptr %3, align 8, !tbaa !30
  %20 = icmp slt i64 %18, %19
  br i1 %20, label %15, label %.preheader

.lr.ph17:                                         ; preds = %.preheader, %.lr.ph17
  %.116 = phi i64 [ %22, %.lr.ph17 ], [ 0, %.preheader ]
  %21 = getelementptr inbounds nuw i64, ptr %14, i64 %.116
  store i64 0, ptr %21, align 8, !tbaa !43
  %22 = add nuw nsw i64 %.116, 1
  %23 = load i64, ptr %10, align 8, !tbaa !31
  %24 = icmp slt i64 %22, %23
  br i1 %24, label %.lr.ph17, label %._crit_edge

._crit_edge:                                      ; preds = %.lr.ph17, %.preheader
  %.lcssa = phi i64 [ %11, %.preheader ], [ %23, %.lr.ph17 ]
  %25 = getelementptr inbounds i64, ptr %14, i64 %.lcssa
  store i64 0, ptr %25, align 8, !tbaa !43
  ret i32 0
}